target datalayout = "e-m:e-p270:32:32-p271:32:32-p272:64:64-i64:64-i128:128-f80:128-n8:16:32:64-S128"
target triple = "x86_64-pc-linux-gnu"

@.str.12 = private unnamed_addr constant [32 x i8] c"../openssl/test/property_test.c\00", align 1
@.str.13 = private unnamed_addr constant [25 x i8] c"ctx = OSSL_LIB_CTX_new()\00", align 1
@.str.251 = private unnamed_addr constant [56 x i8] c"EVP_set_default_properties(ctx, \22default=yes,fips=yes\22)\00", align 1
@.str.252 = private unnamed_addr constant [21 x i8] c"default=yes,fips=yes\00", align 1
@.str.253 = private unnamed_addr constant [44 x i8] c"EVP_default_properties_is_fips_enabled(ctx)\00", align 1
@.str.254 = private unnamed_addr constant [55 x i8] c"EVP_set_default_properties(ctx, \22fips=no,default=yes\22)\00", align 1
@.str.255 = private unnamed_addr constant [20 x i8] c"fips=no,default=yes\00", align 1
@.str.256 = private unnamed_addr constant [43 x i8] c"EVP_set_default_properties(ctx, \22fips=no\22)\00", align 1
@.str.257 = private unnamed_addr constant [8 x i8] c"fips=no\00", align 1
@.str.258 = private unnamed_addr constant [44 x i8] c"EVP_set_default_properties(ctx, \22fips!=no\22)\00", align 1
@.str.259 = private unnamed_addr constant [9 x i8] c"fips!=no\00", align 1
@.str.260 = private unnamed_addr constant [43 x i8] c"EVP_default_properties_enable_fips(ctx, 1)\00", align 1
@.str.261 = private unnamed_addr constant [43 x i8] c"EVP_default_properties_enable_fips(ctx, 0)\00", align 1

; Function Attrs: nounwind uwtable
define internal i32 @test_fips_mode() #0 {
  %1 = alloca i32, align 4
  %2 = alloca ptr, align 8
  call void @llvm.lifetime.start.p0(i64 4, ptr %1) #6
  store i32 0, ptr %1, align 4, !tbaa !9
  call void @llvm.lifetime.start.p0(i64 8, ptr %2) #6
  store ptr null, ptr %2, align 8, !tbaa !11
  %3 = call ptr @OSSL_LIB_CTX_new()
  store ptr %3, ptr %2, align 8, !tbaa !11
  %4 = call i32 @test_ptr(ptr noundef @.str.12, i32 noundef 611, ptr noundef @.str.13, ptr noundef %3)
  %5 = icmp ne i32 %4, 0
  br i1 %5, label %7, label %6

6:                                                ; preds = %0
  br label %115

7:                                                ; preds = %0
  %8 = load ptr, ptr %2, align 8, !tbaa !11
  %9 = call i32 @EVP_set_default_properties(ptr noundef %8, ptr noundef @.str.252)
  %10 = icmp ne i32 %9, 0
  %11 = zext i1 %10 to i32
  %12 = call i32 @test_true(ptr noundef @.str.12, i32 noundef 614, ptr noundef @.str.251, i32 noundef %11)
  %13 = icmp ne i32 %12, 0
  br i1 %13, label %14, label %112

14:                                               ; preds = %7
  %15 = load ptr, ptr %2, align 8, !tbaa !11
  %16 = call i32 @EVP_default_properties_is_fips_enabled(ptr noundef %15)
  %17 = icmp ne i32 %16, 0
  %18 = zext i1 %17 to i32
  %19 = call i32 @test_true(ptr noundef @.str.12, i32 noundef 615, ptr noundef @.str.253, i32 noundef %18)
  %20 = icmp ne i32 %19, 0
  br i1 %20, label %21, label %112

21:                                               ; preds = %14
  %22 = load ptr, ptr %2, align 8, !tbaa !11
  %23 = call i32 @EVP_set_default_properties(ptr noundef %22, ptr noundef @.str.255)
  %24 = icmp ne i32 %23, 0
  %25 = zext i1 %24 to i32
  %26 = call i32 @test_true(ptr noundef @.str.12, i32 noundef 616, ptr noundef @.str.254, i32 noundef %25)
  %27 = icmp ne i32 %26, 0
  br i1 %27, label %28, label %112

28:                                               ; preds = %21
  %29 = load ptr, ptr %2, align 8, !tbaa !11
  %30 = call i32 @EVP_default_properties_is_fips_enabled(ptr noundef %29)
  %31 = icmp ne i32 %30, 0
  %32 = zext i1 %31 to i32
  %33 = call i32 @test_false(ptr noundef @.str.12, i32 noundef 617, ptr noundef @.str.253, i32 noundef %32)
  %34 = icmp ne i32 %33, 0
  br i1 %34, label %35, label %112

35:                                               ; preds = %28
  %36 = load ptr, ptr %2, align 8, !tbaa !11
  %37 = call i32 @EVP_set_default_properties(ptr noundef %36, ptr noundef @.str.257)
  %38 = icmp ne i32 %37, 0
  %39 = zext i1 %38 to i32
  %40 = call i32 @test_true(ptr noundef @.str.12, i32 noundef 618, ptr noundef @.str.256, i32 noundef %39)
  %41 = icmp ne i32 %40, 0
  br i1 %41, label %42, label %112

42:                                               ; preds = %35
  %43 = load ptr, ptr %2, align 8, !tbaa !11
  %44 = call i32 @EVP_default_properties_is_fips_enabled(ptr noundef %43)
  %45 = icmp ne i32 %44, 0
  %46 = zext i1 %45 to i32
  %47 = call i32 @test_false(ptr noundef @.str.12, i32 noundef 619, ptr noundef @.str.253, i32 noundef %46)
  %48 = icmp ne i32 %47, 0
  br i1 %48, label %49, label %112

49:                                               ; preds = %42
  %50 = load ptr, ptr %2, align 8, !tbaa !11
  %51 = call i32 @EVP_set_default_properties(ptr noundef %50, ptr noundef @.str.259)
  %52 = icmp ne i32 %51, 0
  %53 = zext i1 %52 to i32
  %54 = call i32 @test_true(ptr noundef @.str.12, i32 noundef 620, ptr noundef @.str.258, i32 noundef %53)
  %55 = icmp ne i32 %54, 0
  br i1 %55, label %56, label %112

56:                                               ; preds = %49
  %57 = load ptr, ptr %2, align 8, !tbaa !11
  %58 = call i32 @EVP_default_properties_is_fips_enabled(ptr noundef %57)
  %59 = icmp ne i32 %58, 0
  %60 = zext i1 %59 to i32
  %61 = call i32 @test_true(ptr noundef @.str.12, i32 noundef 621, ptr noundef @.str.253, i32 noundef %60)
  %62 = icmp ne i32 %61, 0
  br i1 %62, label %63, label %112

63:                                               ; preds = %56
  %64 = load ptr, ptr %2, align 8, !tbaa !11
  %65 = call i32 @EVP_set_default_properties(ptr noundef %64, ptr noundef @.str.257)
  %66 = icmp ne i32 %65, 0
  %67 = zext i1 %66 to i32
  %68 = call i32 @test_true(ptr noundef @.str.12, i32 noundef 622, ptr noundef @.str.256, i32 noundef %67)
  %69 = icmp ne i32 %68, 0
  br i1 %69, label %70, label %112

70:                                               ; preds = %63
  %71 = load ptr, ptr %2, align 8, !tbaa !11
  %72 = call i32 @EVP_default_properties_is_fips_enabled(ptr noundef %71)
  %73 = icmp ne i32 %72, 0
  %74 = zext i1 %73 to i32
  %75 = call i32 @test_false(ptr noundef @.str.12, i32 noundef 623, ptr noundef @.str.253, i32 noundef %74)
  %76 = icmp ne i32 %75, 0
  br i1 %76, label %77, label %112

77:                                               ; preds = %70
  %78 = load ptr, ptr %2, align 8, !tbaa !11
  %79 = call i32 @EVP_set_default_properties(ptr noundef %78, ptr noundef @.str.255)
  %80 = icmp ne i32 %79, 0
  %81 = zext i1 %80 to i32
  %82 = call i32 @test_true(ptr noundef @.str.12, i32 noundef 624, ptr noundef @.str.254, i32 noundef %81)
  %83 = icmp ne i32 %82, 0
  br i1 %83, label %84, label %112

84:                                               ; preds = %77
  %85 = load ptr, ptr %2, align 8, !tbaa !11
  %86 = call i32 @EVP_default_properties_enable_fips(ptr noundef %85, i32 noundef 1)
  %87 = icmp ne i32 %86, 0
  %88 = zext i1 %87 to i32
  %89 = call i32 @test_true(ptr noundef @.str.12, i32 noundef 625, ptr noundef @.str.260, i32 noundef %88)
  %90 = icmp ne i32 %89, 0
  br i1 %90, label %91, label %112

91:                                               ; preds = %84
  %92 = load ptr, ptr %2, align 8, !tbaa !11
  %93 = call i32 @EVP_default_properties_is_fips_enabled(ptr noundef %92)
  %94 = icmp ne i32 %93, 0
  %95 = zext i1 %94 to i32
  %96 = call i32 @test_true(ptr noundef @.str.12, i32 noundef 626, ptr noundef @.str.253, i32 noundef %95)
  %97 = icmp ne i32 %96, 0
  br i1 %97, label %98, label %112

98:                                               ; preds = %91
  %99 = load ptr, ptr %2, align 8, !tbaa !11
  %100 = call i32 @EVP_default_properties_enable_fips(ptr noundef %99, i32 noundef 0)
  %101 = icmp ne i32 %100, 0
  %102 = zext i1 %101 to i32
  %103 = call i32 @test_true(ptr noundef @.str.12, i32 noundef 627, ptr noundef @.str.261, i32 noundef %102)
  %104 = icmp ne i32 %103, 0
  br i1 %104, label %105, label %112

105:                                              ; preds = %98
  %106 = load ptr, ptr %2, align 8, !tbaa !11
  %107 = call i32 @EVP_default_properties_is_fips_enabled(ptr noundef %106)
  %108 = icmp ne i32 %107, 0
  %109 = zext i1 %108 to i32
  %110 = call i32 @test_false(ptr noundef @.str.12, i32 noundef 628, ptr noundef @.str.253, i32 noundef %109)
  %111 = icmp ne i32 %110, 0
  br label %112

112:                                              ; preds = %105, %98, %91, %84, %77, %70, %63, %56, %49, %42, %35, %28, %21, %14, %7
  %113 = phi i1 [ false, %98 ], [ false, %91 ], [ false, %84 ], [ false, %77 ], [ false, %70 ], [ false, %63 ], [ false, %56 ], [ false, %49 ], [ false, %42 ], [ false, %35 ], [ false, %28 ], [ false, %21 ], [ false, %14 ], [ false, %7 ], [ %111, %105 ]
  %114 = zext i1 %113 to i32
  store i32 %114, ptr %1, align 4, !tbaa !9
  br label %115

115:                                              ; preds = %112, %6
  %116 = load ptr, ptr %2, align 8, !tbaa !11
  call void @OSSL_LIB_CTX_free(ptr noundef %116)
  %117 = load i32, ptr %1, align 4, !tbaa !9
  call void @llvm.lifetime.end.p0(i64 8, ptr %2) #6
  call void @llvm.lifetime.end.p0(i64 4, ptr %1) #6
  ret i32 %117
}