; Function Attrs: nounwind uwtable
define internal range(i32 0, 2) i32 @test_fips_mode() #0 {
  %1 = tail call ptr @OSSL_LIB_CTX_new() #6
  %2 = tail call i32 @test_ptr(ptr noundef nonnull @.str.12, i32 noundef 611, ptr noundef nonnull @.str.13, ptr noundef %1) #6
  %.not = icmp eq i32 %2, 0
  br i1 %.not, label %80, label %3

3:                                                ; preds = %0
  %4 = tail call i32 @EVP_set_default_properties(ptr noundef %1, ptr noundef nonnull @.str.252) #6
  %5 = icmp ne i32 %4, 0
  %6 = zext i1 %5 to i32
  %7 = tail call i32 @test_true(ptr noundef nonnull @.str.12, i32 noundef 614, ptr noundef nonnull @.str.251, i32 noundef %6) #6
  %.not16 = icmp eq i32 %7, 0
  br i1 %.not16, label %80, label %8

8:                                                ; preds = %3
  %9 = tail call i32 @EVP_default_properties_is_fips_enabled(ptr noundef %1) #6
  %10 = icmp ne i32 %9, 0
  %11 = zext i1 %10 to i32
  %12 = tail call i32 @test_true(ptr noundef nonnull @.str.12, i32 noundef 615, ptr noundef nonnull @.str.253, i32 noundef %11) #6
  %.not17 = icmp eq i32 %12, 0
  br i1 %.not17, label %80, label %13

13:                                               ; preds = %8
  %14 = tail call i32 @EVP_set_default_properties(ptr noundef %1, ptr noundef nonnull @.str.255) #6
  %15 = icmp ne i32 %14, 0
  %16 = zext i1 %15 to i32
  %17 = tail call i32 @test_true(ptr noundef nonnull @.str.12, i32 noundef 616, ptr noundef nonnull @.str.254, i32 noundef %16) #6
  %.not18 = icmp eq i32 %17, 0
  br i1 %.not18, label %80, label %18

18:                                               ; preds = %13
  %19 = tail call i32 @EVP_default_properties_is_fips_enabled(ptr noundef %1) #6
  %20 = icmp ne i32 %19, 0
  %21 = zext i1 %20 to i32
  %22 = tail call i32 @test_false(ptr noundef nonnull @.str.12, i32 noundef 617, ptr noundef nonnull @.str.253, i32 noundef %21) #6
  %.not19 = icmp eq i32 %22, 0
  br i1 %.not19, label %80, label %23

23:                                               ; preds = %18
  %24 = tail call i32 @EVP_set_default_properties(ptr noundef %1, ptr noundef nonnull @.str.257) #6
  %25 = icmp ne i32 %24, 0
  %26 = zext i1 %25 to i32
  %27 = tail call i32 @test_true(ptr noundef nonnull @.str.12, i32 noundef 618, ptr noundef nonnull @.str.256, i32 noundef %26) #6
  %.not20 = icmp eq i32 %27, 0
  br i1 %.not20, label %80, label %28

28:                                               ; preds = %23
  %29 = tail call i32 @EVP_default_properties_is_fips_enabled(ptr noundef %1) #6
  %30 = icmp ne i32 %29, 0
  %31 = zext i1 %30 to i32
  %32 = tail call i32 @test_false(ptr noundef nonnull @.str.12, i32 noundef 619, ptr noundef nonnull @.str.253, i32 noundef %31) #6
  %.not21 = icmp eq i32 %32, 0
  br i1 %.not21, label %80, label %33

33:                                               ; preds = %28
  %34 = tail call i32 @EVP_set_default_properties(ptr noundef %1, ptr noundef nonnull @.str.259) #6
  %35 = icmp ne i32 %34, 0
  %36 = zext i1 %35 to i32
  %37 = tail call i32 @test_true(ptr noundef nonnull @.str.12, i32 noundef 620, ptr noundef nonnull @.str.258, i32 noundef %36) #6
  %.not22 = icmp eq i32 %37, 0
  br i1 %.not22, label %80, label %38

38:                                               ; preds = %33
  %39 = tail call i32 @EVP_default_properties_is_fips_enabled(ptr noundef %1) #6
  %40 = icmp ne i32 %39, 0
  %41 = zext i1 %40 to i32
  %42 = tail call i32 @test_true(ptr noundef nonnull @.str.12, i32 noundef 621, ptr noundef nonnull @.str.253, i32 noundef %41) #6
  %.not23 = icmp eq i32 %42, 0
  br i1 %.not23, label %80, label %43

43:                                               ; preds = %38
  %44 = tail call i32 @EVP_set_default_properties(ptr noundef %1, ptr noundef nonnull @.str.257) #6
  %45 = icmp ne i32 %44, 0
  %46 = zext i1 %45 to i32
  %47 = tail call i32 @test_true(ptr noundef nonnull @.str.12, i32 noundef 622, ptr noundef nonnull @.str.256, i32 noundef %46) #6
  %.not24 = icmp eq i32 %47, 0
  br i1 %.not24, label %80, label %48

48:                                               ; preds = %43
  %49 = tail call i32 @EVP_default_properties_is_fips_enabled(ptr noundef %1) #6
  %50 = icmp ne i32 %49, 0
  %51 = zext i1 %50 to i32
  %52 = tail call i32 @test_false(ptr noundef nonnull @.str.12, i32 noundef 623, ptr noundef nonnull @.str.253, i32 noundef %51) #6
  %.not25 = icmp eq i32 %52, 0
  br i1 %.not25, label %80, label %53

53:                                               ; preds = %48
  %54 = tail call i32 @EVP_set_default_properties(ptr noundef %1, ptr noundef nonnull @.str.255) #6
  %55 = icmp ne i32 %54, 0
  %56 = zext i1 %55 to i32
  %57 = tail call i32 @test_true(ptr noundef nonnull @.str.12, i32 noundef 624, ptr noundef nonnull @.str.254, i32 noundef %56) #6
  %.not26 = icmp eq i32 %57, 0
  br i1 %.not26, label %80, label %58

58:                                               ; preds = %53
  %59 = tail call i32 @EVP_default_properties_enable_fips(ptr noundef %1, i32 noundef 1) #6
  %60 = icmp ne i32 %59, 0
  %61 = zext i1 %60 to i32
  %62 = tail call i32 @test_true(ptr noundef nonnull @.str.12, i32 noundef 625, ptr noundef nonnull @.str.260, i32 noundef %61) #6
  %.not27 = icmp eq i32 %62, 0
  br i1 %.not27, label %80, label %63

63:                                               ; preds = %58
  %64 = tail call i32 @EVP_default_properties_is_fips_enabled(ptr noundef %1) #6
  %65 = icmp ne i32 %64, 0
  %66 = zext i1 %65 to i32
  %67 = tail call i32 @test_true(ptr noundef nonnull @.str.12, i32 noundef 626, ptr noundef nonnull @.str.253, i32 noundef %66) #6
  %.not28 = icmp eq i32 %67, 0
  br i1 %.not28, label %80, label %68

68:                                               ; preds = %63
  %69 = tail call i32 @EVP_default_properties_enable_fips(ptr noundef %1, i32 noundef 0) #6
  %70 = icmp ne i32 %69, 0
  %71 = zext i1 %70 to i32
  %72 = tail call i32 @test_true(ptr noundef nonnull @.str.12, i32 noundef 627, ptr noundef nonnull @.str.261, i32 noundef %71) #6
  %.not29 = icmp eq i32 %72, 0
  br i1 %.not29, label %80, label %73

73:                                               ; preds = %68
  %74 = tail call i32 @EVP_default_properties_is_fips_enabled(ptr noundef %1) #6
  %75 = icmp ne i32 %74, 0
  %76 = zext i1 %75 to i32
  %77 = tail call i32 @test_false(ptr noundef nonnull @.str.12, i32 noundef 628, ptr noundef nonnull @.str.253, i32 noundef %76) #6
  %78 = icmp ne i32 %77, 0
  %79 = zext i1 %78 to i32
  br label %80

80:                                               ; preds = %3, %8, %13, %18, %23, %28, %33, %38, %43, %48, %53, %58, %63, %68, %73, %0
  %.0 = phi i32 [ 0, %0 ], [ 0, %68 ], [ 0, %63 ], [ 0, %58 ], [ 0, %53 ], [ 0, %48 ], [ 0, %43 ], [ 0, %38 ], [ 0, %33 ], [ 0, %28 ], [ 0, %23 ], [ 0, %18 ], [ 0, %13 ], [ 0, %8 ], [ 0, %3 ], [ %79, %73 ]
  tail call void @OSSL_LIB_CTX_free(ptr noundef %1) #6
  ret i32 %.0
}